target datalayout = "e-m:e-p270:32:32-p271:32:32-p272:64:64-i64:64-i128:128-f80:128-n8:16:32:64-S128"
target triple = "x86_64-pc-linux-gnu"

%struct.prov_cipher_ctx_st = type { [16 x i8], [16 x i8], [16 x i8], ptr, %union.anon, i32, i64, i64, i64, i64, i32, i8, i32, ptr, i32, i64, i32, i64, i32, ptr, ptr, ptr }
%union.anon = type { ptr }
%struct.ossl_param_st = type { ptr, i32, ptr, i64, i64 }

@.str = private unnamed_addr constant [58 x i8] c"../openssl/providers/implementations/ciphers/cipher_des.c\00", align 1
@.str.1 = private unnamed_addr constant [8 x i8] c"randkey\00", align 1
@__func__.des_get_ctx_params = private unnamed_addr constant [19 x i8] c"des_get_ctx_params\00", align 1

; Function Attrs: nounwind uwtable
define internal i32 @des_generatekey(ptr noundef %0, ptr noundef %1) #0 {
  %3 = alloca i32, align 4
  %4 = alloca ptr, align 8
  %5 = alloca ptr, align 8
  %6 = alloca ptr, align 8
  %7 = alloca i64, align 8
  %8 = alloca i32, align 4
  store ptr %0, ptr %4, align 8, !tbaa !23
  store ptr %1, ptr %5, align 8, !tbaa !3
  call void @llvm.lifetime.start.p0(i64 8, ptr %6) #4
  %9 = load ptr, ptr %5, align 8, !tbaa !3
  store ptr %9, ptr %6, align 8, !tbaa !7
  call void @llvm.lifetime.start.p0(i64 8, ptr %7) #4
  %10 = load ptr, ptr %4, align 8, !tbaa !23
  %11 = getelementptr inbounds nuw %struct.prov_cipher_ctx_st, ptr %10, i32 0, i32 6
  %12 = load i64, ptr %11, align 8, !tbaa !31
  store i64 %12, ptr %7, align 8, !tbaa !9
  %13 = load i64, ptr %7, align 8, !tbaa !9
  %14 = icmp eq i64 %13, 0
  br i1 %14, label %23, label %15

15:                                               ; preds = %2
  %16 = load ptr, ptr %4, align 8, !tbaa !23
  %17 = getelementptr inbounds nuw %struct.prov_cipher_ctx_st, ptr %16, i32 0, i32 21
  %18 = load ptr, ptr %17, align 8, !tbaa !35
  %19 = load ptr, ptr %5, align 8, !tbaa !3
  %20 = load i64, ptr %7, align 8, !tbaa !9
  %21 = call i32 @RAND_priv_bytes_ex(ptr noundef %18, ptr noundef %19, i64 noundef %20, i32 noundef 0)
  %22 = icmp sle i32 %21, 0
  br i1 %22, label %23, label %24

23:                                               ; preds = %15, %2
  store i32 0, ptr %3, align 4
  store i32 1, ptr %8, align 4
  br label %26

24:                                               ; preds = %15
  %25 = load ptr, ptr %6, align 8, !tbaa !7
  call void @DES_set_odd_parity(ptr noundef %25)
  store i32 1, ptr %3, align 4
  store i32 1, ptr %8, align 4
  br label %26

26:                                               ; preds = %24, %23
  call void @llvm.lifetime.end.p0(i64 8, ptr %7) #4
  call void @llvm.lifetime.end.p0(i64 8, ptr %6) #4
  %27 = load i32, ptr %3, align 4
  ret i32 %27
}

; Function Attrs: nounwind uwtable
define internal i32 @des_get_ctx_params(ptr noundef %0, ptr noundef %1) #0 {
  %3 = alloca i32, align 4
  %4 = alloca ptr, align 8
  %5 = alloca ptr, align 8
  %6 = alloca ptr, align 8
  %7 = alloca ptr, align 8
  %8 = alloca i32, align 4
  store ptr %0, ptr %4, align 8, !tbaa !3
  store ptr %1, ptr %5, align 8, !tbaa !11
  call void @llvm.lifetime.start.p0(i64 8, ptr %6) #4
  %9 = load ptr, ptr %4, align 8, !tbaa !3
  store ptr %9, ptr %6, align 8, !tbaa !23
  call void @llvm.lifetime.start.p0(i64 8, ptr %7) #4
  %10 = load ptr, ptr %4, align 8, !tbaa !3
  %11 = load ptr, ptr %5, align 8, !tbaa !11
  %12 = call i32 @ossl_cipher_generic_get_ctx_params(ptr noundef %10, ptr noundef %11)
  %13 = icmp ne i32 %12, 0
  br i1 %13, label %15, label %14

14:                                               ; preds = %2
  store i32 0, ptr %3, align 4
  store i32 1, ptr %8, align 4
  br label %29

15:                                               ; preds = %2
  %16 = load ptr, ptr %5, align 8, !tbaa !11
  %17 = call ptr @OSSL_PARAM_locate(ptr noundef %16, ptr noundef @.str.1)
  store ptr %17, ptr %7, align 8, !tbaa !11
  %18 = load ptr, ptr %7, align 8, !tbaa !11
  %19 = icmp ne ptr %18, null
  br i1 %19, label %20, label %28

20:                                               ; preds = %15
  %21 = load ptr, ptr %6, align 8, !tbaa !23
  %22 = load ptr, ptr %7, align 8, !tbaa !11
  %23 = getelementptr inbounds nuw %struct.ossl_param_st, ptr %22, i32 0, i32 2
  %24 = load ptr, ptr %23, align 8, !tbaa !25
  %25 = call i32 @des_generatekey(ptr noundef %21, ptr noundef %24)
  %26 = icmp ne i32 %25, 0
  br i1 %26, label %28, label %27

27:                                               ; preds = %20
  call void @ERR_new()
  call void @ERR_set_debug(ptr noundef @.str, i32 noundef 144, ptr noundef @__func__.des_get_ctx_params)
  call void (i32, i32, ptr, ...) @ERR_set_error(i32 noundef 57, i32 noundef 121, ptr noundef null)
  store i32 0, ptr %3, align 4
  store i32 1, ptr %8, align 4
  br label %29

28:                                               ; preds = %20, %15
  store i32 1, ptr %3, align 4
  store i32 1, ptr %8, align 4
  br label %29

29:                                               ; preds = %28, %27, %14
  call void @llvm.lifetime.end.p0(i64 8, ptr %7) #4
  call void @llvm.lifetime.end.p0(i64 8, ptr %6) #4
  %30 = load i32, ptr %3, align 4
  ret i32 %30
}