; Function Attrs: nounwind uwtable
define internal range(i32 0, 2) i32 @des_get_ctx_params(ptr noundef %0, ptr noundef %1) #0 {
  %3 = tail call i32 @ossl_cipher_generic_get_ctx_params(ptr noundef %0, ptr noundef %1) #4
  %.not = icmp eq i32 %3, 0
  br i1 %.not, label %18, label %4

4:                                                ; preds = %2
  %5 = tail call ptr @OSSL_PARAM_locate(ptr noundef %1, ptr noundef nonnull @.str.1) #4
  %.not8 = icmp eq ptr %5, null
  br i1 %.not8, label %18, label %6

6:                                                ; preds = %4
  %7 = getelementptr inbounds nuw i8, ptr %5, i64 16
  %8 = load ptr, ptr %7, align 8, !tbaa !16
  %9 = getelementptr inbounds nuw i8, ptr %0, i64 72
  %10 = load i64, ptr %9, align 8, !tbaa !18
  %11 = icmp eq i64 %10, 0
  br i1 %11, label %17, label %12

12:                                               ; preds = %6
  %13 = getelementptr inbounds nuw i8, ptr %0, i64 184
  %14 = load ptr, ptr %13, align 8, !tbaa !19
  %15 = tail call i32 @RAND_priv_bytes_ex(ptr noundef %14, ptr noundef %8, i64 noundef %10, i32 noundef 0) #4
  %16 = icmp slt i32 %15, 1
  br i1 %16, label %17, label %des_generatekey.exit

des_generatekey.exit:                             ; preds = %12
  tail call void @DES_set_odd_parity(ptr noundef %8) #4
  br label %18

17:                                               ; preds = %12, %6
  tail call void @ERR_new() #4
  tail call void @ERR_set_debug(ptr noundef nonnull @.str, i32 noundef 144, ptr noundef nonnull @__func__.des_get_ctx_params) #4
  tail call void (i32, i32, ptr, ...) @ERR_set_error(i32 noundef 57, i32 noundef 121, ptr noundef null) #4
  br label %18

18:                                               ; preds = %des_generatekey.exit, %4, %2, %17
  %.0 = phi i32 [ 0, %17 ], [ 0, %2 ], [ 1, %des_generatekey.exit ], [ 1, %4 ]
  ret i32 %.0
}